; Function Attrs: mustprogress uwtable
define hidden void @_ZN4lean18mk_enf_unreachableEv(ptr dead_on_unwind noalias writable writeonly sret(%"class.lean::expr") align 8 captures(none) initializes((0, 8)) %0) local_unnamed_addr #0 {
  %2 = load ptr, ptr @_ZN4leanL18g_unreachable_exprE, align 8, !tbaa !19
  %3 = load ptr, ptr %2, align 8, !tbaa !3
  store ptr %3, ptr %0, align 8, !tbaa !3
  %4 = ptrtoint ptr %3 to i64
  %5 = and i64 %4, 1
  %.not.i.i.i = icmp eq i64 %5, 0
  br i1 %.not.i.i.i, label %6, label %_ZN4lean4exprC2ERKS0_.exit

6:                                                ; preds = %1
  %.val.i.i.i.i = load i32, ptr %3, align 4, !tbaa !13
  %7 = icmp sgt i32 %.val.i.i.i.i, 0
  br i1 %7, label %8, label %10, !prof !15

8:                                                ; preds = %6
  %9 = add nuw nsw i32 %.val.i.i.i.i, 1
  store i32 %9, ptr %3, align 4, !tbaa !13
  br label %_ZN4lean4exprC2ERKS0_.exit

10:                                               ; preds = %6
  %.not.i.i.i.i = icmp eq i32 %.val.i.i.i.i, 0
  br i1 %.not.i.i.i.i, label %_ZN4lean4exprC2ERKS0_.exit, label %11

11:                                               ; preds = %10
  tail call void @lean_inc_ref_cold(ptr noundef nonnull %3)
  br label %_ZN4lean4exprC2ERKS0_.exit

_ZN4lean4exprC2ERKS0_.exit:                       ; preds = %1, %8, %10, %11
  ret void
}